; Function Attrs: mustprogress uwtable
define dso_local void @_ZNK4base9Histogram19GetAsciiBucketRangeB5cxx11Ej(ptr noalias sret(%"class.std::__cxx11::basic_string") align 8 %agg.result, ptr noundef nonnull align 8 dereferenceable(81) %this, i32 noundef %i) unnamed_addr #0 align 2 {
entry:
  %vtable = load ptr, ptr %this, align 8
  %vfn = getelementptr inbounds i8, ptr %vtable, i64 144
  %0 = load ptr, ptr %vfn, align 8
  %call = tail call noundef i32 %0(ptr noundef nonnull align 8 dereferenceable(81) %this, i32 noundef %i)
  tail call void @_ZNK4base13HistogramBase25GetSimpleAsciiBucketRangeB5cxx11Ei(ptr sret(%"class.std::__cxx11::basic_string") align 8 %agg.result, ptr noundef nonnull align 8 dereferenceable(44) %this, i32 noundef %call)
  ret void
}